; Function Attrs: mustprogress uwtable
define void @_ZN5Ipopt16StdInterfaceTNLP11apply_new_xEbiPKd(ptr nocapture noundef nonnull align 8 dereferenceable(264) %0, i1 noundef zeroext %1, i32 noundef %2, ptr noundef %3) local_unnamed_addr #0 align 2 {
  br i1 %1, label %5, label %17

5:                                                ; preds = %4
  %6 = getelementptr inbounds i8, ptr %0, i64 192
  %7 = load ptr, ptr %6, align 8
  %8 = icmp eq ptr %7, null
  br i1 %8, label %9, label %15

9:                                                ; preds = %5
  %10 = zext nneg i32 %2 to i64
  %11 = icmp slt i32 %2, 0
  %12 = shl nuw nsw i64 %10, 3
  %13 = select i1 %11, i64 -1, i64 %12
  %14 = tail call noalias noundef nonnull ptr @_Znam(i64 noundef %13) #13
  store ptr %14, ptr %6, align 8
  br label %15

15:                                               ; preds = %9, %5
  %16 = phi ptr [ %14, %9 ], [ %7, %5 ]
  tail call void @_ZN5Ipopt10IpBlasCopyEiPKdiPdi(i32 noundef %2, ptr noundef %3, i32 noundef 1, ptr noundef nonnull %16, i32 noundef 1)
  br label %17

17:                                               ; preds = %15, %4
  ret void
}